target datalayout = "e-m:e-p270:32:32-p271:32:32-p272:64:64-i64:64-i128:128-f80:128-n8:16:32:64-S128"
target triple = "x86_64-pc-linux-gnu"

@coef_sp = internal constant [2 x i16] [i16 5077, i16 981], align 2

; Function Attrs: alwaysinline nounwind willreturn memory(none) uwtable
define internal i32 @av_clip_c(i32 noundef %0, i32 noundef %1, i32 noundef %2) #2 {
  %4 = alloca i32, align 4
  %5 = alloca i32, align 4
  %6 = alloca i32, align 4
  %7 = alloca i32, align 4
  store i32 %0, ptr %5, align 4, !tbaa !8
  store i32 %1, ptr %6, align 4, !tbaa !8
  store i32 %2, ptr %7, align 4, !tbaa !8
  %8 = load i32, ptr %5, align 4, !tbaa !8
  %9 = load i32, ptr %6, align 4, !tbaa !8
  %10 = icmp slt i32 %8, %9
  br i1 %10, label %11, label %13

11:                                               ; preds = %3
  %12 = load i32, ptr %6, align 4, !tbaa !8
  store i32 %12, ptr %4, align 4
  br label %21

13:                                               ; preds = %3
  %14 = load i32, ptr %5, align 4, !tbaa !8
  %15 = load i32, ptr %7, align 4, !tbaa !8
  %16 = icmp sgt i32 %14, %15
  br i1 %16, label %17, label %19

17:                                               ; preds = %13
  %18 = load i32, ptr %7, align 4, !tbaa !8
  store i32 %18, ptr %4, align 4
  br label %21

19:                                               ; preds = %13
  %20 = load i32, ptr %5, align 4, !tbaa !8
  store i32 %20, ptr %4, align 4
  br label %21

21:                                               ; preds = %19, %17, %11
  %22 = load i32, ptr %4, align 4
  ret i32 %22
}

; Function Attrs: nounwind uwtable
define void @ff_bwdif_filter_intra_c(ptr noundef %0, ptr noundef %1, i32 noundef %2, i32 noundef %3, i32 noundef %4, i32 noundef %5, i32 noundef %6, i32 noundef %7, i32 noundef %8) #0 {
  %10 = alloca ptr, align 8
  %11 = alloca ptr, align 8
  %12 = alloca i32, align 4
  %13 = alloca i32, align 4
  %14 = alloca i32, align 4
  %15 = alloca i32, align 4
  %16 = alloca i32, align 4
  %17 = alloca i32, align 4
  %18 = alloca i32, align 4
  %19 = alloca ptr, align 8
  %20 = alloca ptr, align 8
  %21 = alloca i32, align 4
  %22 = alloca i32, align 4
  store ptr %0, ptr %10, align 8, !tbaa !4
  store ptr %1, ptr %11, align 8, !tbaa !4
  store i32 %2, ptr %12, align 4, !tbaa !8
  store i32 %3, ptr %13, align 4, !tbaa !8
  store i32 %4, ptr %14, align 4, !tbaa !8
  store i32 %5, ptr %15, align 4, !tbaa !8
  store i32 %6, ptr %16, align 4, !tbaa !8
  store i32 %7, ptr %17, align 4, !tbaa !8
  store i32 %8, ptr %18, align 4, !tbaa !8
  call void @llvm.lifetime.start.p0(i64 8, ptr %19) #4
  %23 = load ptr, ptr %10, align 8, !tbaa !4
  store ptr %23, ptr %19, align 8, !tbaa !10
  call void @llvm.lifetime.start.p0(i64 8, ptr %20) #4
  %24 = load ptr, ptr %11, align 8, !tbaa !4
  store ptr %24, ptr %20, align 8, !tbaa !10
  call void @llvm.lifetime.start.p0(i64 4, ptr %21) #4
  call void @llvm.lifetime.start.p0(i64 4, ptr %22) #4
  store i32 0, ptr %22, align 4, !tbaa !8
  br label %25

25:                                               ; preds = %74, %9
  %26 = load i32, ptr %22, align 4, !tbaa !8
  %27 = load i32, ptr %12, align 4, !tbaa !8
  %28 = icmp slt i32 %26, %27
  br i1 %28, label %29, label %77

29:                                               ; preds = %25
  %30 = load i16, ptr @coef_sp, align 2, !tbaa !12
  %31 = zext i16 %30 to i32
  %32 = load ptr, ptr %20, align 8, !tbaa !10
  %33 = load i32, ptr %14, align 4, !tbaa !8
  %34 = sext i32 %33 to i64
  %35 = getelementptr inbounds i8, ptr %32, i64 %34
  %36 = load i8, ptr %35, align 1, !tbaa !14
  %37 = zext i8 %36 to i32
  %38 = load ptr, ptr %20, align 8, !tbaa !10
  %39 = load i32, ptr %13, align 4, !tbaa !8
  %40 = sext i32 %39 to i64
  %41 = getelementptr inbounds i8, ptr %38, i64 %40
  %42 = load i8, ptr %41, align 1, !tbaa !14
  %43 = zext i8 %42 to i32
  %44 = add nsw i32 %37, %43
  %45 = mul nsw i32 %31, %44
  %46 = load i16, ptr getelementptr inbounds ([2 x i16], ptr @coef_sp, i64 0, i64 1), align 2, !tbaa !12
  %47 = zext i16 %46 to i32
  %48 = load ptr, ptr %20, align 8, !tbaa !10
  %49 = load i32, ptr %16, align 4, !tbaa !8
  %50 = sext i32 %49 to i64
  %51 = getelementptr inbounds i8, ptr %48, i64 %50
  %52 = load i8, ptr %51, align 1, !tbaa !14
  %53 = zext i8 %52 to i32
  %54 = load ptr, ptr %20, align 8, !tbaa !10
  %55 = load i32, ptr %15, align 4, !tbaa !8
  %56 = sext i32 %55 to i64
  %57 = getelementptr inbounds i8, ptr %54, i64 %56
  %58 = load i8, ptr %57, align 1, !tbaa !14
  %59 = zext i8 %58 to i32
  %60 = add nsw i32 %53, %59
  %61 = mul nsw i32 %47, %60
  %62 = sub nsw i32 %45, %61
  %63 = ashr i32 %62, 13
  store i32 %63, ptr %21, align 4, !tbaa !8
  %64 = load i32, ptr %21, align 4, !tbaa !8
  %65 = load i32, ptr %18, align 4, !tbaa !8
  %66 = call i32 @av_clip_c(i32 noundef %64, i32 noundef 0, i32 noundef %65) #5
  %67 = trunc i32 %66 to i8
  %68 = load ptr, ptr %19, align 8, !tbaa !10
  %69 = getelementptr inbounds i8, ptr %68, i64 0
  store i8 %67, ptr %69, align 1, !tbaa !14
  %70 = load ptr, ptr %19, align 8, !tbaa !10
  %71 = getelementptr inbounds nuw i8, ptr %70, i32 1
  store ptr %71, ptr %19, align 8, !tbaa !10
  %72 = load ptr, ptr %20, align 8, !tbaa !10
  %73 = getelementptr inbounds nuw i8, ptr %72, i32 1
  store ptr %73, ptr %20, align 8, !tbaa !10
  br label %74

74:                                               ; preds = %29
  %75 = load i32, ptr %22, align 4, !tbaa !8
  %76 = add nsw i32 %75, 1
  store i32 %76, ptr %22, align 4, !tbaa !8
  br label %25, !llvm.loop !15

77:                                               ; preds = %25
  call void @llvm.lifetime.end.p0(i64 4, ptr %22) #4
  call void @llvm.lifetime.end.p0(i64 4, ptr %21) #4
  call void @llvm.lifetime.end.p0(i64 8, ptr %20) #4
  call void @llvm.lifetime.end.p0(i64 8, ptr %19) #4
  ret void
}